Certificate:
    Data:
        Version: 3 (0x2)
        Serial Number: 0 (0x0)
    Signature Algorithm: sha1WithRSAEncryption
        Issuer: CN=test.cesanta.com, O=Cesanta, OU=testing
        Validity
            Not Before: Feb 24 21:16:34 2016 GMT
            Not After : Nov 23 21:16:34 2025 GMT
        Subject: CN=do.not.use.me
        Subject Public Key Info:
            Public Key Algorithm: rsaEncryption
                Public-Key: (1024 bit)
                Modulus:
                    00:e7:e1:01:41:9c:82:3f:e9:16:98:8c:0f:99:bf:
                    54:ad:fc:12:d1:4c:bc:34:9b:67:e4:3b:f8:d5:b4:
                    d1:7a:2e:a2:4f:52:43:da:e1:3f:12:4c:81:e3:a1:
                    8d:1f:e3:06:bf:ab:2d:ca:62:a4:bf:55:fa:e7:84:
                    91:b6:5d:ce:cf:2b:9a:a5:79:57:06:1a:de:58:c9:
                    a3:6e:71:e5:4f:ac:7a:07:fc:65:94:1d:21:b3:a4:
                    0f:48:e5:7e:60:03:ee:77:97:f2:41:d9:c2:2a:79:
                    85:ae:5c:19:e6:fe:01:3e:d4:41:9b:95:34:1a:a3:
                    3b:e6:94:a7:ea:9e:cc:26:9d
                Exponent: 65537 (0x10001)
        X509v3 extensions:
            X509v3 Basic Constraints: 
                CA:FALSE
            X509v3 Key Usage: 
                Key Encipherment, Key Agreement
            X509v3 Extended Key Usage: 
                TLS Web Server Authentication
            X509v3 Subject Alternative Name: 
                IP Address:127.0.0.1, DNS:localhost, DNS:never.use.me, DNS:except.for.tests
    Signature Algorithm: sha1WithRSAEncryption
         80:a9:71:c5:0b:24:9d:eb:29:bb:bb:24:2b:ba:0a:f4:4b:8f:
         20:6a:4b:14:6b:83:38:28:97:d7:4b:33:8b:75:94:ef:cf:0d:
         75:1c:5d:1a:64:03:48:ea:45:12:48:c0:e7:f5:ea:a2:ef:76:
         14:12:51:79:16:8a:83:da:2e:03:75:28:ba:50:f9:51:e0:93:
         3c:14:04:16:d8:27:c0:58:ba:b8:ac:ae:7a:b2:1e:61:34:a1:
         a6:94:ca:0a:da:3a:87:80:ea:ef:a9:7d:a0:1b:dc:a2:5a:45:
         8e:18:e9:6b:32:5e:79:3b:4f:ec:4f:d7:81:20:6d:34:b3:cb:
         09:27
-----BEGIN CERTIFICATE-----
MIICODCCAaGgAwIBAgIBADANBgkqhkiG9w0BAQUFADA/MRkwFwYDVQQDDBB0ZXN0
LmNlc2FudGEuY29tMRAwDgYDVQQKDAdDZXNhbnRhMRAwDgYDVQQLDAd0ZXN0aW5n
MB4XDTE2MDIyNDIxMTYzNFoXDTI1MTEyMzIxMTYzNFowGDEWMBQGA1UEAwwNZG8u
bm90LnVzZS5tZTCBnzANBgkqhkiG9w0BAQEFAAOBjQAwgYkCgYEA5+EBQZyCP+kW
mIwPmb9UrfwS0Uy8NJtn5Dv41bTRei6iT1JD2uE/EkyB46GNH+MGv6stymKkv1X6
54SRtl3OzyuapXlXBhreWMmjbnHlT6x6B/xllB0hs6QPSOV+YAPud5fyQdnCKnmF
rlwZ5v4BPtRBm5U0GqM75pSn6p7MJp0CAwEAAaNrMGkwCQYDVR0TBAIwADALBgNV
HQ8EBAMCAygwEwYDVR0lBAwwCgYIKwYBBQUHAwEwOgYDVR0RBDMwMYcEfwAAAYIJ
bG9jYWxob3N0ggxuZXZlci51c2UubWWCEGV4Y2VwdC5mb3IudGVzdHMwDQYJKoZI
hvcNAQEFBQADgYEAgKlxxQsknespu7skK7oK9EuPIGpLFGuDOCiX10szi3WU788N
dRxdGmQDSOpFEkjA5/Xqou92FBJReRaKg9ouA3UoulD5UeCTPBQEFtgnwFi6uKyu
erIeYTShppTKCto6h4Dq76l9oBvcolpFjhjpazJeeTtP7E/XgSBtNLPLCSc=
-----END CERTIFICATE-----
